target datalayout = "e-m:e-p270:32:32-p271:32:32-p272:64:64-i64:64-i128:128-f80:128-n8:16:32:64-S128"
target triple = "x86_64-pc-linux-gnu"

; Function Attrs: inlinehint nounwind sspstrong uwtable
define internal i64 @rb_memsearch_with_char_size(ptr noundef %0, i64 noundef %1, ptr noundef %2, i64 noundef %3, i32 noundef %4) #3 {
  %6 = alloca i64, align 8
  %7 = alloca ptr, align 8
  %8 = alloca i64, align 8
  %9 = alloca ptr, align 8
  %10 = alloca i64, align 8
  %11 = alloca i32, align 4
  %12 = alloca ptr, align 8
  %13 = alloca i8, align 1
  %14 = alloca ptr, align 8
  %15 = alloca i32, align 4
  store ptr %0, ptr %7, align 8, !tbaa !13
  store i64 %1, ptr %8, align 8, !tbaa !11
  store ptr %2, ptr %9, align 8, !tbaa !13
  store i64 %3, ptr %10, align 8, !tbaa !11
  store i32 %4, ptr %11, align 4, !tbaa !16
  call void @llvm.lifetime.start.p0(i64 8, ptr %12) #28
  %16 = load ptr, ptr %7, align 8, !tbaa !13
  store ptr %16, ptr %12, align 8, !tbaa !13
  call void @llvm.lifetime.start.p0(i64 1, ptr %13) #28
  %17 = load ptr, ptr %7, align 8, !tbaa !13
  %18 = load i8, ptr %17, align 1, !tbaa !15
  store i8 %18, ptr %13, align 1, !tbaa !15
  call void @llvm.lifetime.start.p0(i64 8, ptr %14) #28
  %19 = load ptr, ptr %9, align 8, !tbaa !13
  store ptr %19, ptr %14, align 8, !tbaa !13
  %20 = load i64, ptr %8, align 8, !tbaa !11
  %21 = load i64, ptr %10, align 8, !tbaa !11
  %22 = sub i64 %21, %20
  store i64 %22, ptr %10, align 8, !tbaa !11
  br label %23

23:                                               ; preds = %49, %5
  %24 = load i64, ptr %10, align 8, !tbaa !11
  %25 = icmp sge i64 %24, 0
  br i1 %25, label %26, label %58

26:                                               ; preds = %23
  %27 = load i8, ptr %13, align 1, !tbaa !15
  %28 = zext i8 %27 to i32
  %29 = load ptr, ptr %14, align 8, !tbaa !13
  %30 = load i8, ptr %29, align 1, !tbaa !15
  %31 = zext i8 %30 to i32
  %32 = icmp eq i32 %28, %31
  br i1 %32, label %33, label %48

33:                                               ; preds = %26
  %34 = load ptr, ptr %12, align 8, !tbaa !13
  %35 = getelementptr i8, ptr %34, i64 1
  %36 = load ptr, ptr %14, align 8, !tbaa !13
  %37 = getelementptr i8, ptr %36, i64 1
  %38 = load i64, ptr %8, align 8, !tbaa !11
  %39 = sub i64 %38, 1
  %40 = call i32 @memcmp(ptr noundef %35, ptr noundef %37, i64 noundef %39) #29
  %41 = icmp eq i32 %40, 0
  br i1 %41, label %42, label %48

42:                                               ; preds = %33
  %43 = load ptr, ptr %14, align 8, !tbaa !13
  %44 = load ptr, ptr %9, align 8, !tbaa !13
  %45 = ptrtoint ptr %43 to i64
  %46 = ptrtoint ptr %44 to i64
  %47 = sub i64 %45, %46
  store i64 %47, ptr %6, align 8
  store i32 1, ptr %15, align 4
  br label %59

48:                                               ; preds = %33, %26
  br label %49

49:                                               ; preds = %48
  %50 = load i32, ptr %11, align 4, !tbaa !16
  %51 = sext i32 %50 to i64
  %52 = load i64, ptr %10, align 8, !tbaa !11
  %53 = sub i64 %52, %51
  store i64 %53, ptr %10, align 8, !tbaa !11
  %54 = load i32, ptr %11, align 4, !tbaa !16
  %55 = load ptr, ptr %14, align 8, !tbaa !13
  %56 = sext i32 %54 to i64
  %57 = getelementptr i8, ptr %55, i64 %56
  store ptr %57, ptr %14, align 8, !tbaa !13
  br label %23, !llvm.loop !123

58:                                               ; preds = %23
  store i64 -1, ptr %6, align 8
  store i32 1, ptr %15, align 4
  br label %59

59:                                               ; preds = %58, %42
  call void @llvm.lifetime.end.p0(i64 8, ptr %14) #28
  call void @llvm.lifetime.end.p0(i64 1, ptr %13) #28
  call void @llvm.lifetime.end.p0(i64 8, ptr %12) #28
  %60 = load i64, ptr %6, align 8
  ret i64 %60
}

; Function Attrs: inlinehint nounwind sspstrong uwtable
define internal i64 @rb_memsearch_qchar(ptr noundef %0, i64 noundef %1, ptr noundef %2, i64 noundef %3) #3 {
  %5 = alloca ptr, align 8
  %6 = alloca i64, align 8
  %7 = alloca ptr, align 8
  %8 = alloca i64, align 8
  store ptr %0, ptr %5, align 8, !tbaa !13
  store i64 %1, ptr %6, align 8, !tbaa !11
  store ptr %2, ptr %7, align 8, !tbaa !13
  store i64 %3, ptr %8, align 8, !tbaa !11
  %9 = load ptr, ptr %5, align 8, !tbaa !13
  %10 = load i64, ptr %6, align 8, !tbaa !11
  %11 = load ptr, ptr %7, align 8, !tbaa !13
  %12 = load i64, ptr %8, align 8, !tbaa !11
  %13 = call i64 @rb_memsearch_with_char_size(ptr noundef %9, i64 noundef %10, ptr noundef %11, i64 noundef %12, i32 noundef 4)
  ret i64 %13
}